; Function Attrs: mustprogress uwtable
define hidden void @_ZN20dependent_expr_state6freezeEP9func_decl(ptr noundef nonnull align 8 dereferenceable(160) %0, ptr noundef %1) local_unnamed_addr #3 align 2 {
  %3 = getelementptr inbounds nuw i8, ptr %0, i64 32
  %4 = tail call noundef zeroext i1 @_ZNK8ast_mark9is_markedEP3ast(ptr noundef nonnull align 8 dereferenceable(56) %3, ptr noundef %1)
  br i1 %4, label %30, label %5

5:                                                ; preds = %2
  %6 = getelementptr inbounds nuw i8, ptr %1, i64 24
  %7 = load ptr, ptr %6, align 8, !tbaa !25
  %8 = icmp eq ptr %7, null
  br i1 %8, label %_ZN15ref_vector_coreI9func_decl19ref_manager_wrapperIS0_11ast_managerEE7inc_refEPS0_.exit.i, label %_Z11is_uninterpPK9func_decl.exit

_Z11is_uninterpPK9func_decl.exit:                 ; preds = %5
  %9 = load i32, ptr %7, align 8, !tbaa !31
  %10 = icmp eq i32 %9, -1
  br i1 %10, label %_ZN15ref_vector_coreI9func_decl19ref_manager_wrapperIS0_11ast_managerEE7inc_refEPS0_.exit.i, label %30

_ZN15ref_vector_coreI9func_decl19ref_manager_wrapperIS0_11ast_managerEE7inc_refEPS0_.exit.i: ; preds = %5, %_Z11is_uninterpPK9func_decl.exit
  %11 = getelementptr inbounds nuw i8, ptr %1, i64 8
  %12 = load i32, ptr %11, align 4, !tbaa !36
  %13 = add i32 %12, 1
  store i32 %13, ptr %11, align 4, !tbaa !36
  %14 = getelementptr inbounds nuw i8, ptr %0, i64 96
  %15 = load ptr, ptr %14, align 8, !tbaa !37
  %16 = icmp eq ptr %15, null
  br i1 %16, label %23, label %17

17:                                               ; preds = %_ZN15ref_vector_coreI9func_decl19ref_manager_wrapperIS0_11ast_managerEE7inc_refEPS0_.exit.i
  %18 = getelementptr inbounds i8, ptr %15, i64 -4
  %19 = load i32, ptr %18, align 4, !tbaa !40
  %20 = getelementptr inbounds i8, ptr %15, i64 -8
  %21 = load i32, ptr %20, align 4, !tbaa !40
  %22 = icmp eq i32 %19, %21
  br i1 %22, label %23, label %_ZN15ref_vector_coreI9func_decl19ref_manager_wrapperIS0_11ast_managerEE9push_backEPS0_.exit

23:                                               ; preds = %17, %_ZN15ref_vector_coreI9func_decl19ref_manager_wrapperIS0_11ast_managerEE7inc_refEPS0_.exit.i
  tail call void @_ZN6vectorIP9func_declLb0EjE13expand_vectorEv(ptr noundef nonnull align 8 dereferenceable(8) %14)
  %.pre.i.i = load ptr, ptr %14, align 8, !tbaa !37
  %.phi.trans.insert.i.i = getelementptr inbounds i8, ptr %.pre.i.i, i64 -4
  %.pre2.i.i = load i32, ptr %.phi.trans.insert.i.i, align 4, !tbaa !40
  br label %_ZN15ref_vector_coreI9func_decl19ref_manager_wrapperIS0_11ast_managerEE9push_backEPS0_.exit

_ZN15ref_vector_coreI9func_decl19ref_manager_wrapperIS0_11ast_managerEE9push_backEPS0_.exit: ; preds = %17, %23
  %24 = phi i32 [ %.pre2.i.i, %23 ], [ %19, %17 ]
  %25 = phi ptr [ %.pre.i.i, %23 ], [ %15, %17 ]
  %26 = getelementptr inbounds i8, ptr %25, i64 -4
  %27 = zext i32 %24 to i64
  %28 = getelementptr inbounds nuw ptr, ptr %25, i64 %27
  store ptr %1, ptr %28, align 8, !tbaa !41
  %29 = add i32 %24, 1
  store i32 %29, ptr %26, align 4, !tbaa !40
  tail call void @_ZN8ast_mark4markEP3astb(ptr noundef nonnull align 8 dereferenceable(56) %3, ptr noundef nonnull %1, i1 noundef zeroext true)
  br label %30

30:                                               ; preds = %2, %_Z11is_uninterpPK9func_decl.exit, %_ZN15ref_vector_coreI9func_decl19ref_manager_wrapperIS0_11ast_managerEE9push_backEPS0_.exit
  ret void
}